target datalayout = "e-m:e-p270:32:32-p271:32:32-p272:64:64-i64:64-i128:128-f80:128-n8:16:32:64-S128"
target triple = "x86_64-pc-linux-gnu"

%struct.vars = type { ptr, ptr, ptr, i32, i32, i32, i32, i32, i32, i32, ptr, i64, [10 x ptr], ptr, ptr, i16, ptr, ptr, ptr, ptr, i32, ptr, ptr, ptr, i32, i64 }
%struct.colormap = type { i32, ptr, i64, i64, i16, ptr, ptr, [14 x i32], i32, ptr, ptr, i32, i32, i32, [10 x %struct.colordesc] }
%struct.colordesc = type { i32, i32, i16, ptr, i32, i32 }
%struct.nfa = type { ptr, ptr, ptr, ptr, i32, ptr, ptr, ptr, ptr, ptr, ptr, i64, i64, ptr, [2 x i16], [2 x i16], i32, i32, i32, ptr, ptr }
%struct.arc = type { i32, i16, ptr, ptr, ptr, ptr, ptr, ptr, ptr, ptr }
%struct.state = type { i32, i8, i32, i32, ptr, ptr, ptr, ptr, ptr }
%struct.arcbatch = type { ptr, i64, [0 x %struct.arc] }

; Function Attrs: nounwind uwtable
define internal void @colorchain(ptr noundef %0, ptr noundef %1) #0 {
  %3 = alloca ptr, align 8
  %4 = alloca ptr, align 8
  %5 = alloca ptr, align 8
  store ptr %0, ptr %3, align 8
  store ptr %1, ptr %4, align 8
  call void @llvm.lifetime.start.p0(i64 8, ptr %5) #12
  %6 = load ptr, ptr %3, align 8
  %7 = getelementptr inbounds nuw %struct.colormap, ptr %6, i32 0, i32 5
  %8 = load ptr, ptr %7, align 8
  %9 = load ptr, ptr %4, align 8
  %10 = getelementptr inbounds nuw %struct.arc, ptr %9, i32 0, i32 1
  %11 = load i16, ptr %10, align 4
  %12 = sext i16 %11 to i64
  %13 = getelementptr inbounds %struct.colordesc, ptr %8, i64 %12
  store ptr %13, ptr %5, align 8
  %14 = load ptr, ptr %5, align 8
  %15 = getelementptr inbounds nuw %struct.colordesc, ptr %14, i32 0, i32 3
  %16 = load ptr, ptr %15, align 8
  %17 = icmp ne ptr %16, null
  br i1 %17, label %18, label %24

18:                                               ; preds = %2
  %19 = load ptr, ptr %4, align 8
  %20 = load ptr, ptr %5, align 8
  %21 = getelementptr inbounds nuw %struct.colordesc, ptr %20, i32 0, i32 3
  %22 = load ptr, ptr %21, align 8
  %23 = getelementptr inbounds nuw %struct.arc, ptr %22, i32 0, i32 9
  store ptr %19, ptr %23, align 8
  br label %24

24:                                               ; preds = %18, %2
  %25 = load ptr, ptr %5, align 8
  %26 = getelementptr inbounds nuw %struct.colordesc, ptr %25, i32 0, i32 3
  %27 = load ptr, ptr %26, align 8
  %28 = load ptr, ptr %4, align 8
  %29 = getelementptr inbounds nuw %struct.arc, ptr %28, i32 0, i32 8
  store ptr %27, ptr %29, align 8
  %30 = load ptr, ptr %4, align 8
  %31 = getelementptr inbounds nuw %struct.arc, ptr %30, i32 0, i32 9
  store ptr null, ptr %31, align 8
  %32 = load ptr, ptr %4, align 8
  %33 = load ptr, ptr %5, align 8
  %34 = getelementptr inbounds nuw %struct.colordesc, ptr %33, i32 0, i32 3
  store ptr %32, ptr %34, align 8
  call void @llvm.lifetime.end.p0(i64 8, ptr %5) #12
  ret void
}

; Function Attrs: nounwind uwtable
define internal ptr @allocarc(ptr noundef %0) #0 {
  %2 = alloca ptr, align 8
  %3 = alloca ptr, align 8
  %4 = alloca ptr, align 8
  %5 = alloca ptr, align 8
  %6 = alloca i64, align 8
  %7 = alloca i32, align 4
  store ptr %0, ptr %3, align 8
  call void @llvm.lifetime.start.p0(i64 8, ptr %4) #12
  %8 = load ptr, ptr %3, align 8
  %9 = getelementptr inbounds nuw %struct.nfa, ptr %8, i32 0, i32 8
  %10 = load ptr, ptr %9, align 8
  %11 = icmp ne ptr %10, null
  br i1 %11, label %12, label %21

12:                                               ; preds = %1
  %13 = load ptr, ptr %3, align 8
  %14 = getelementptr inbounds nuw %struct.nfa, ptr %13, i32 0, i32 8
  %15 = load ptr, ptr %14, align 8
  store ptr %15, ptr %4, align 8
  %16 = load ptr, ptr %4, align 8
  %17 = getelementptr inbounds nuw %struct.arc, ptr %16, i32 0, i32 4
  %18 = load ptr, ptr %17, align 8
  %19 = load ptr, ptr %3, align 8
  %20 = getelementptr inbounds nuw %struct.nfa, ptr %19, i32 0, i32 8
  store ptr %18, ptr %20, align 8
  br label %156

21:                                               ; preds = %1
  %22 = load ptr, ptr %3, align 8
  %23 = getelementptr inbounds nuw %struct.nfa, ptr %22, i32 0, i32 10
  %24 = load ptr, ptr %23, align 8
  %25 = icmp ne ptr %24, null
  br i1 %25, label %26, label %46

26:                                               ; preds = %21
  %27 = load ptr, ptr %3, align 8
  %28 = getelementptr inbounds nuw %struct.nfa, ptr %27, i32 0, i32 12
  %29 = load i64, ptr %28, align 8
  %30 = load ptr, ptr %3, align 8
  %31 = getelementptr inbounds nuw %struct.nfa, ptr %30, i32 0, i32 10
  %32 = load ptr, ptr %31, align 8
  %33 = getelementptr inbounds nuw %struct.arcbatch, ptr %32, i32 0, i32 1
  %34 = load i64, ptr %33, align 8
  %35 = icmp ult i64 %29, %34
  br i1 %35, label %36, label %46

36:                                               ; preds = %26
  %37 = load ptr, ptr %3, align 8
  %38 = getelementptr inbounds nuw %struct.nfa, ptr %37, i32 0, i32 10
  %39 = load ptr, ptr %38, align 8
  %40 = getelementptr inbounds nuw %struct.arcbatch, ptr %39, i32 0, i32 2
  %41 = load ptr, ptr %3, align 8
  %42 = getelementptr inbounds nuw %struct.nfa, ptr %41, i32 0, i32 12
  %43 = load i64, ptr %42, align 8
  %44 = add i64 %43, 1
  store i64 %44, ptr %42, align 8
  %45 = getelementptr inbounds nuw [0 x %struct.arc], ptr %40, i64 0, i64 %43
  store ptr %45, ptr %4, align 8
  br label %155

46:                                               ; preds = %26, %21
  call void @llvm.lifetime.start.p0(i64 8, ptr %5) #12
  call void @llvm.lifetime.start.p0(i64 8, ptr %6) #12
  %47 = load ptr, ptr %3, align 8
  %48 = getelementptr inbounds nuw %struct.nfa, ptr %47, i32 0, i32 19
  %49 = load ptr, ptr %48, align 8
  %50 = getelementptr inbounds nuw %struct.vars, ptr %49, i32 0, i32 25
  %51 = load i64, ptr %50, align 8
  %52 = icmp uge i64 %51, 172000000
  br i1 %52, label %53, label %77

53:                                               ; preds = %46
  %54 = load ptr, ptr %3, align 8
  %55 = getelementptr inbounds nuw %struct.nfa, ptr %54, i32 0, i32 19
  %56 = load ptr, ptr %55, align 8
  %57 = getelementptr inbounds nuw %struct.vars, ptr %56, i32 0, i32 6
  store i32 101, ptr %57, align 4
  %58 = load ptr, ptr %3, align 8
  %59 = getelementptr inbounds nuw %struct.nfa, ptr %58, i32 0, i32 19
  %60 = load ptr, ptr %59, align 8
  %61 = getelementptr inbounds nuw %struct.vars, ptr %60, i32 0, i32 3
  %62 = load i32, ptr %61, align 8
  %63 = icmp ne i32 %62, 0
  br i1 %63, label %64, label %70

64:                                               ; preds = %53
  %65 = load ptr, ptr %3, align 8
  %66 = getelementptr inbounds nuw %struct.nfa, ptr %65, i32 0, i32 19
  %67 = load ptr, ptr %66, align 8
  %68 = getelementptr inbounds nuw %struct.vars, ptr %67, i32 0, i32 3
  %69 = load i32, ptr %68, align 8
  br label %71

70:                                               ; preds = %53
  br label %71

71:                                               ; preds = %70, %64
  %72 = phi i32 [ %69, %64 ], [ 19, %70 ]
  %73 = load ptr, ptr %3, align 8
  %74 = getelementptr inbounds nuw %struct.nfa, ptr %73, i32 0, i32 19
  %75 = load ptr, ptr %74, align 8
  %76 = getelementptr inbounds nuw %struct.vars, ptr %75, i32 0, i32 3
  store i32 %72, ptr %76, align 8
  store ptr null, ptr %2, align 8
  store i32 1, ptr %7, align 4
  br label %152

77:                                               ; preds = %46
  %78 = load ptr, ptr %3, align 8
  %79 = getelementptr inbounds nuw %struct.nfa, ptr %78, i32 0, i32 10
  %80 = load ptr, ptr %79, align 8
  %81 = icmp ne ptr %80, null
  br i1 %81, label %82, label %89

82:                                               ; preds = %77
  %83 = load ptr, ptr %3, align 8
  %84 = getelementptr inbounds nuw %struct.nfa, ptr %83, i32 0, i32 10
  %85 = load ptr, ptr %84, align 8
  %86 = getelementptr inbounds nuw %struct.arcbatch, ptr %85, i32 0, i32 1
  %87 = load i64, ptr %86, align 8
  %88 = mul i64 %87, 2
  br label %90

89:                                               ; preds = %77
  br label %90

90:                                               ; preds = %89, %82
  %91 = phi i64 [ %88, %82 ], [ 64, %89 ]
  store i64 %91, ptr %6, align 8
  %92 = load i64, ptr %6, align 8
  %93 = icmp ugt i64 %92, 1024
  br i1 %93, label %94, label %95

94:                                               ; preds = %90
  store i64 1024, ptr %6, align 8
  br label %95

95:                                               ; preds = %94, %90
  %96 = load i64, ptr %6, align 8
  %97 = mul i64 %96, 72
  %98 = add i64 %97, 16
  %99 = call ptr @palloc_extended(i64 noundef %98, i32 noundef 2)
  store ptr %99, ptr %5, align 8
  %100 = load ptr, ptr %5, align 8
  %101 = icmp eq ptr %100, null
  br i1 %101, label %102, label %126

102:                                              ; preds = %95
  %103 = load ptr, ptr %3, align 8
  %104 = getelementptr inbounds nuw %struct.nfa, ptr %103, i32 0, i32 19
  %105 = load ptr, ptr %104, align 8
  %106 = getelementptr inbounds nuw %struct.vars, ptr %105, i32 0, i32 6
  store i32 101, ptr %106, align 4
  %107 = load ptr, ptr %3, align 8
  %108 = getelementptr inbounds nuw %struct.nfa, ptr %107, i32 0, i32 19
  %109 = load ptr, ptr %108, align 8
  %110 = getelementptr inbounds nuw %struct.vars, ptr %109, i32 0, i32 3
  %111 = load i32, ptr %110, align 8
  %112 = icmp ne i32 %111, 0
  br i1 %112, label %113, label %119

113:                                              ; preds = %102
  %114 = load ptr, ptr %3, align 8
  %115 = getelementptr inbounds nuw %struct.nfa, ptr %114, i32 0, i32 19
  %116 = load ptr, ptr %115, align 8
  %117 = getelementptr inbounds nuw %struct.vars, ptr %116, i32 0, i32 3
  %118 = load i32, ptr %117, align 8
  br label %120

119:                                              ; preds = %102
  br label %120

120:                                              ; preds = %119, %113
  %121 = phi i32 [ %118, %113 ], [ 12, %119 ]
  %122 = load ptr, ptr %3, align 8
  %123 = getelementptr inbounds nuw %struct.nfa, ptr %122, i32 0, i32 19
  %124 = load ptr, ptr %123, align 8
  %125 = getelementptr inbounds nuw %struct.vars, ptr %124, i32 0, i32 3
  store i32 %121, ptr %125, align 8
  store ptr null, ptr %2, align 8
  store i32 1, ptr %7, align 4
  br label %152

126:                                              ; preds = %95
  %127 = load i64, ptr %6, align 8
  %128 = mul i64 %127, 72
  %129 = add i64 %128, 16
  %130 = load ptr, ptr %3, align 8
  %131 = getelementptr inbounds nuw %struct.nfa, ptr %130, i32 0, i32 19
  %132 = load ptr, ptr %131, align 8
  %133 = getelementptr inbounds nuw %struct.vars, ptr %132, i32 0, i32 25
  %134 = load i64, ptr %133, align 8
  %135 = add i64 %134, %129
  store i64 %135, ptr %133, align 8
  %136 = load i64, ptr %6, align 8
  %137 = load ptr, ptr %5, align 8
  %138 = getelementptr inbounds nuw %struct.arcbatch, ptr %137, i32 0, i32 1
  store i64 %136, ptr %138, align 8
  %139 = load ptr, ptr %3, align 8
  %140 = getelementptr inbounds nuw %struct.nfa, ptr %139, i32 0, i32 10
  %141 = load ptr, ptr %140, align 8
  %142 = load ptr, ptr %5, align 8
  %143 = getelementptr inbounds nuw %struct.arcbatch, ptr %142, i32 0, i32 0
  store ptr %141, ptr %143, align 8
  %144 = load ptr, ptr %5, align 8
  %145 = load ptr, ptr %3, align 8
  %146 = getelementptr inbounds nuw %struct.nfa, ptr %145, i32 0, i32 10
  store ptr %144, ptr %146, align 8
  %147 = load ptr, ptr %3, align 8
  %148 = getelementptr inbounds nuw %struct.nfa, ptr %147, i32 0, i32 12
  store i64 1, ptr %148, align 8
  %149 = load ptr, ptr %5, align 8
  %150 = getelementptr inbounds nuw %struct.arcbatch, ptr %149, i32 0, i32 2
  %151 = getelementptr inbounds [0 x %struct.arc], ptr %150, i64 0, i64 0
  store ptr %151, ptr %4, align 8
  store i32 0, ptr %7, align 4
  br label %152

152:                                              ; preds = %126, %120, %71
  call void @llvm.lifetime.end.p0(i64 8, ptr %6) #12
  call void @llvm.lifetime.end.p0(i64 8, ptr %5) #12
  %153 = load i32, ptr %7, align 4
  switch i32 %153, label %158 [
    i32 0, label %154
  ]

154:                                              ; preds = %152
  br label %155

155:                                              ; preds = %154, %36
  br label %156

156:                                              ; preds = %155, %12
  %157 = load ptr, ptr %4, align 8
  store ptr %157, ptr %2, align 8
  store i32 1, ptr %7, align 4
  br label %158

158:                                              ; preds = %156, %152
  call void @llvm.lifetime.end.p0(i64 8, ptr %4) #12
  %159 = load ptr, ptr %2, align 8
  ret ptr %159
}

; Function Attrs: nounwind uwtable
define internal void @createarc(ptr noundef %0, i32 noundef %1, i16 noundef signext %2, ptr noundef %3, ptr noundef %4) #0 {
  %6 = alloca ptr, align 8
  %7 = alloca i32, align 4
  %8 = alloca i16, align 2
  %9 = alloca ptr, align 8
  %10 = alloca ptr, align 8
  %11 = alloca ptr, align 8
  %12 = alloca i32, align 4
  store ptr %0, ptr %6, align 8
  store i32 %1, ptr %7, align 4
  store i16 %2, ptr %8, align 2
  store ptr %3, ptr %9, align 8
  store ptr %4, ptr %10, align 8
  call void @llvm.lifetime.start.p0(i64 8, ptr %11) #12
  %13 = load ptr, ptr %6, align 8
  %14 = call ptr @allocarc(ptr noundef %13)
  store ptr %14, ptr %11, align 8
  %15 = load ptr, ptr %6, align 8
  %16 = getelementptr inbounds nuw %struct.nfa, ptr %15, i32 0, i32 19
  %17 = load ptr, ptr %16, align 8
  %18 = getelementptr inbounds nuw %struct.vars, ptr %17, i32 0, i32 3
  %19 = load i32, ptr %18, align 8
  %20 = icmp ne i32 %19, 0
  br i1 %20, label %21, label %22

21:                                               ; preds = %5
  store i32 1, ptr %12, align 4
  br label %116

22:                                               ; preds = %5
  %23 = load i32, ptr %7, align 4
  %24 = load ptr, ptr %11, align 8
  %25 = getelementptr inbounds nuw %struct.arc, ptr %24, i32 0, i32 0
  store i32 %23, ptr %25, align 8
  %26 = load i16, ptr %8, align 2
  %27 = load ptr, ptr %11, align 8
  %28 = getelementptr inbounds nuw %struct.arc, ptr %27, i32 0, i32 1
  store i16 %26, ptr %28, align 4
  %29 = load ptr, ptr %10, align 8
  %30 = load ptr, ptr %11, align 8
  %31 = getelementptr inbounds nuw %struct.arc, ptr %30, i32 0, i32 3
  store ptr %29, ptr %31, align 8
  %32 = load ptr, ptr %9, align 8
  %33 = load ptr, ptr %11, align 8
  %34 = getelementptr inbounds nuw %struct.arc, ptr %33, i32 0, i32 2
  store ptr %32, ptr %34, align 8
  %35 = load ptr, ptr %10, align 8
  %36 = getelementptr inbounds nuw %struct.state, ptr %35, i32 0, i32 4
  %37 = load ptr, ptr %36, align 8
  %38 = load ptr, ptr %11, align 8
  %39 = getelementptr inbounds nuw %struct.arc, ptr %38, i32 0, i32 6
  store ptr %37, ptr %39, align 8
  %40 = load ptr, ptr %11, align 8
  %41 = getelementptr inbounds nuw %struct.arc, ptr %40, i32 0, i32 7
  store ptr null, ptr %41, align 8
  %42 = load ptr, ptr %10, align 8
  %43 = getelementptr inbounds nuw %struct.state, ptr %42, i32 0, i32 4
  %44 = load ptr, ptr %43, align 8
  %45 = icmp ne ptr %44, null
  br i1 %45, label %46, label %52

46:                                               ; preds = %22
  %47 = load ptr, ptr %11, align 8
  %48 = load ptr, ptr %10, align 8
  %49 = getelementptr inbounds nuw %struct.state, ptr %48, i32 0, i32 4
  %50 = load ptr, ptr %49, align 8
  %51 = getelementptr inbounds nuw %struct.arc, ptr %50, i32 0, i32 7
  store ptr %47, ptr %51, align 8
  br label %52

52:                                               ; preds = %46, %22
  %53 = load ptr, ptr %11, align 8
  %54 = load ptr, ptr %10, align 8
  %55 = getelementptr inbounds nuw %struct.state, ptr %54, i32 0, i32 4
  store ptr %53, ptr %55, align 8
  %56 = load ptr, ptr %9, align 8
  %57 = getelementptr inbounds nuw %struct.state, ptr %56, i32 0, i32 5
  %58 = load ptr, ptr %57, align 8
  %59 = load ptr, ptr %11, align 8
  %60 = getelementptr inbounds nuw %struct.arc, ptr %59, i32 0, i32 4
  store ptr %58, ptr %60, align 8
  %61 = load ptr, ptr %11, align 8
  %62 = getelementptr inbounds nuw %struct.arc, ptr %61, i32 0, i32 5
  store ptr null, ptr %62, align 8
  %63 = load ptr, ptr %9, align 8
  %64 = getelementptr inbounds nuw %struct.state, ptr %63, i32 0, i32 5
  %65 = load ptr, ptr %64, align 8
  %66 = icmp ne ptr %65, null
  br i1 %66, label %67, label %73

67:                                               ; preds = %52
  %68 = load ptr, ptr %11, align 8
  %69 = load ptr, ptr %9, align 8
  %70 = getelementptr inbounds nuw %struct.state, ptr %69, i32 0, i32 5
  %71 = load ptr, ptr %70, align 8
  %72 = getelementptr inbounds nuw %struct.arc, ptr %71, i32 0, i32 5
  store ptr %68, ptr %72, align 8
  br label %73

73:                                               ; preds = %67, %52
  %74 = load ptr, ptr %11, align 8
  %75 = load ptr, ptr %9, align 8
  %76 = getelementptr inbounds nuw %struct.state, ptr %75, i32 0, i32 5
  store ptr %74, ptr %76, align 8
  %77 = load ptr, ptr %9, align 8
  %78 = getelementptr inbounds nuw %struct.state, ptr %77, i32 0, i32 3
  %79 = load i32, ptr %78, align 4
  %80 = add i32 %79, 1
  store i32 %80, ptr %78, align 4
  %81 = load ptr, ptr %10, align 8
  %82 = getelementptr inbounds nuw %struct.state, ptr %81, i32 0, i32 2
  %83 = load i32, ptr %82, align 8
  %84 = add i32 %83, 1
  store i32 %84, ptr %82, align 8
  %85 = load ptr, ptr %11, align 8
  %86 = getelementptr inbounds nuw %struct.arc, ptr %85, i32 0, i32 1
  %87 = load i16, ptr %86, align 4
  %88 = sext i16 %87 to i32
  %89 = icmp sge i32 %88, 0
  br i1 %89, label %90, label %115

90:                                               ; preds = %73
  %91 = load ptr, ptr %11, align 8
  %92 = getelementptr inbounds nuw %struct.arc, ptr %91, i32 0, i32 0
  %93 = load i32, ptr %92, align 8
  %94 = icmp eq i32 %93, 112
  br i1 %94, label %105, label %95

95:                                               ; preds = %90
  %96 = load ptr, ptr %11, align 8
  %97 = getelementptr inbounds nuw %struct.arc, ptr %96, i32 0, i32 0
  %98 = load i32, ptr %97, align 8
  %99 = icmp eq i32 %98, 97
  br i1 %99, label %105, label %100

100:                                              ; preds = %95
  %101 = load ptr, ptr %11, align 8
  %102 = getelementptr inbounds nuw %struct.arc, ptr %101, i32 0, i32 0
  %103 = load i32, ptr %102, align 8
  %104 = icmp eq i32 %103, 114
  br i1 %104, label %105, label %115

105:                                              ; preds = %100, %95, %90
  %106 = load ptr, ptr %6, align 8
  %107 = getelementptr inbounds nuw %struct.nfa, ptr %106, i32 0, i32 20
  %108 = load ptr, ptr %107, align 8
  %109 = icmp eq ptr %108, null
  br i1 %109, label %110, label %115

110:                                              ; preds = %105
  %111 = load ptr, ptr %6, align 8
  %112 = getelementptr inbounds nuw %struct.nfa, ptr %111, i32 0, i32 13
  %113 = load ptr, ptr %112, align 8
  %114 = load ptr, ptr %11, align 8
  call void @colorchain(ptr noundef %113, ptr noundef %114)
  br label %115

115:                                              ; preds = %110, %105, %100, %73
  store i32 0, ptr %12, align 4
  br label %116

116:                                              ; preds = %115, %21
  call void @llvm.lifetime.end.p0(i64 8, ptr %11) #12
  %117 = load i32, ptr %12, align 4
  switch i32 %117, label %119 [
    i32 0, label %118
    i32 1, label %118
  ]

118:                                              ; preds = %116, %116
  ret void

119:                                              ; preds = %116
  unreachable
}