; Function Attrs: nounwind uwtable
define internal fastcc void @createarc(ptr noundef captures(none) %0, i32 noundef %1, i16 noundef signext %2, ptr noundef %3, ptr noundef %4) unnamed_addr #0 {
  %6 = getelementptr inbounds nuw i8, ptr %0, i64 64
  %7 = load ptr, ptr %6, align 8
  %.not.i = icmp eq ptr %7, null
  br i1 %.not.i, label %11, label %8

8:                                                ; preds = %5
  %9 = getelementptr inbounds nuw i8, ptr %7, i64 24
  %10 = load ptr, ptr %9, align 8
  store ptr %10, ptr %6, align 8
  br label %allocarc.exit

11:                                               ; preds = %5
  %12 = getelementptr inbounds nuw i8, ptr %0, i64 80
  %13 = load ptr, ptr %12, align 8
  %.not45.i = icmp eq ptr %13, null
  br i1 %.not45.i, label %24, label %14

14:                                               ; preds = %11
  %15 = getelementptr inbounds nuw i8, ptr %0, i64 96
  %16 = load i64, ptr %15, align 8
  %17 = getelementptr inbounds nuw i8, ptr %13, i64 8
  %18 = load i64, ptr %17, align 8
  %19 = icmp ult i64 %16, %18
  br i1 %19, label %20, label %.thread.i

20:                                               ; preds = %14
  %21 = getelementptr inbounds nuw i8, ptr %13, i64 16
  %22 = add nuw i64 %16, 1
  store i64 %22, ptr %15, align 8
  %23 = getelementptr inbounds nuw [0 x %struct.arc], ptr %21, i64 0, i64 %16
  br label %allocarc.exit

24:                                               ; preds = %11
  %25 = getelementptr inbounds nuw i8, ptr %0, i64 136
  %26 = load ptr, ptr %25, align 8
  %27 = getelementptr inbounds nuw i8, ptr %26, i64 248
  %28 = load i64, ptr %27, align 8
  %29 = icmp ugt i64 %28, 171999999
  br i1 %29, label %35, label %44

.thread.i:                                        ; preds = %14
  %30 = getelementptr inbounds nuw i8, ptr %0, i64 136
  %31 = load ptr, ptr %30, align 8
  %32 = getelementptr inbounds nuw i8, ptr %31, i64 248
  %33 = load i64, ptr %32, align 8
  %34 = icmp ugt i64 %33, 171999999
  br i1 %34, label %35, label %42

35:                                               ; preds = %.thread.i, %24
  %36 = phi ptr [ %31, %.thread.i ], [ %26, %24 ]
  %37 = phi ptr [ %30, %.thread.i ], [ %25, %24 ]
  %38 = getelementptr inbounds nuw i8, ptr %36, i64 36
  store i32 101, ptr %38, align 4
  %39 = load ptr, ptr %37, align 8
  %40 = getelementptr inbounds nuw i8, ptr %39, i64 24
  %41 = load i32, ptr %40, align 8
  %.not48.i = icmp eq i32 %41, 0
  %spec.select.i = select i1 %.not48.i, i32 19, i32 %41
  store i32 %spec.select.i, ptr %40, align 8
  br label %allocarc.exit

42:                                               ; preds = %.thread.i
  %43 = shl i64 %18, 1
  br label %44

44:                                               ; preds = %42, %24
  %45 = phi ptr [ %30, %42 ], [ %25, %24 ]
  %46 = phi i64 [ %43, %42 ], [ 64, %24 ]
  %spec.store.select.i = tail call i64 @llvm.umin.i64(i64 %46, i64 1024)
  %47 = mul nuw nsw i64 %spec.store.select.i, 72
  %48 = add nuw nsw i64 %47, 16
  %49 = tail call ptr @palloc_extended(i64 noundef %48, i32 noundef 2) #20
  %50 = icmp eq ptr %49, null
  %51 = load ptr, ptr %45, align 8
  br i1 %50, label %52, label %57

52:                                               ; preds = %44
  %53 = getelementptr inbounds nuw i8, ptr %51, i64 36
  store i32 101, ptr %53, align 4
  %54 = load ptr, ptr %45, align 8
  %55 = getelementptr inbounds nuw i8, ptr %54, i64 24
  %56 = load i32, ptr %55, align 8
  %.not47.i = icmp eq i32 %56, 0
  %spec.select49.i = select i1 %.not47.i, i32 12, i32 %56
  store i32 %spec.select49.i, ptr %55, align 8
  br label %allocarc.exit

57:                                               ; preds = %44
  %58 = getelementptr inbounds nuw i8, ptr %51, i64 248
  %59 = load i64, ptr %58, align 8
  %60 = add i64 %59, %48
  store i64 %60, ptr %58, align 8
  %61 = getelementptr inbounds nuw i8, ptr %49, i64 8
  store i64 %spec.store.select.i, ptr %61, align 8
  %62 = load ptr, ptr %12, align 8
  store ptr %62, ptr %49, align 8
  store ptr %49, ptr %12, align 8
  %63 = getelementptr inbounds nuw i8, ptr %0, i64 96
  store i64 1, ptr %63, align 8
  %64 = getelementptr inbounds nuw i8, ptr %49, i64 16
  br label %allocarc.exit

allocarc.exit:                                    ; preds = %8, %20, %35, %52, %57
  %.1.i = phi ptr [ %7, %8 ], [ %23, %20 ], [ %64, %57 ], [ null, %35 ], [ null, %52 ]
  %65 = getelementptr inbounds nuw i8, ptr %0, i64 136
  %66 = load ptr, ptr %65, align 8
  %67 = getelementptr inbounds nuw i8, ptr %66, i64 24
  %68 = load i32, ptr %67, align 8
  %.not = icmp eq i32 %68, 0
  br i1 %.not, label %69, label %115

69:                                               ; preds = %allocarc.exit
  store i32 %1, ptr %.1.i, align 8
  %70 = getelementptr inbounds nuw i8, ptr %.1.i, i64 4
  store i16 %2, ptr %70, align 4
  %71 = getelementptr inbounds nuw i8, ptr %.1.i, i64 16
  store ptr %4, ptr %71, align 8
  %72 = getelementptr inbounds nuw i8, ptr %.1.i, i64 8
  store ptr %3, ptr %72, align 8
  %73 = getelementptr inbounds nuw i8, ptr %4, i64 16
  %74 = load ptr, ptr %73, align 8
  %75 = getelementptr inbounds nuw i8, ptr %.1.i, i64 40
  store ptr %74, ptr %75, align 8
  %76 = getelementptr inbounds nuw i8, ptr %.1.i, i64 48
  store ptr null, ptr %76, align 8
  %77 = load ptr, ptr %73, align 8
  %.not36 = icmp eq ptr %77, null
  br i1 %.not36, label %80, label %78

78:                                               ; preds = %69
  %79 = getelementptr inbounds nuw i8, ptr %77, i64 48
  store ptr %.1.i, ptr %79, align 8
  br label %80

80:                                               ; preds = %78, %69
  store ptr %.1.i, ptr %73, align 8
  %81 = getelementptr inbounds nuw i8, ptr %3, i64 24
  %82 = load ptr, ptr %81, align 8
  %83 = getelementptr inbounds nuw i8, ptr %.1.i, i64 24
  store ptr %82, ptr %83, align 8
  %84 = getelementptr inbounds nuw i8, ptr %.1.i, i64 32
  store ptr null, ptr %84, align 8
  %85 = load ptr, ptr %81, align 8
  %.not37 = icmp eq ptr %85, null
  br i1 %.not37, label %88, label %86

86:                                               ; preds = %80
  %87 = getelementptr inbounds nuw i8, ptr %85, i64 32
  store ptr %.1.i, ptr %87, align 8
  br label %88

88:                                               ; preds = %86, %80
  store ptr %.1.i, ptr %81, align 8
  %89 = getelementptr inbounds nuw i8, ptr %3, i64 12
  %90 = load i32, ptr %89, align 4
  %91 = add i32 %90, 1
  store i32 %91, ptr %89, align 4
  %92 = getelementptr inbounds nuw i8, ptr %4, i64 8
  %93 = load i32, ptr %92, align 8
  %94 = add i32 %93, 1
  store i32 %94, ptr %92, align 8
  %95 = load i16, ptr %70, align 4
  %96 = icmp sgt i16 %95, -1
  br i1 %96, label %97, label %115

97:                                               ; preds = %88
  %98 = load i32, ptr %.1.i, align 8
  switch i32 %98, label %115 [
    i32 112, label %99
    i32 97, label %99
    i32 114, label %99
  ]

99:                                               ; preds = %97, %97, %97
  %100 = getelementptr inbounds nuw i8, ptr %0, i64 144
  %101 = load ptr, ptr %100, align 8
  %102 = icmp eq ptr %101, null
  br i1 %102, label %103, label %115

103:                                              ; preds = %99
  %104 = getelementptr inbounds nuw i8, ptr %0, i64 104
  %105 = load ptr, ptr %104, align 8
  %106 = getelementptr i8, ptr %105, i64 40
  %.val = load ptr, ptr %106, align 8
  %107 = zext nneg i16 %95 to i64
  %108 = getelementptr inbounds nuw %struct.colordesc, ptr %.val, i64 %107, i32 3
  %109 = load ptr, ptr %108, align 8
  %.not.i38 = icmp eq ptr %109, null
  br i1 %.not.i38, label %colorchain.exit, label %110

110:                                              ; preds = %103
  %111 = getelementptr inbounds nuw i8, ptr %109, i64 64
  store ptr %.1.i, ptr %111, align 8
  %.pre.i = load ptr, ptr %108, align 8
  br label %colorchain.exit

colorchain.exit:                                  ; preds = %103, %110
  %112 = phi ptr [ %.pre.i, %110 ], [ null, %103 ]
  %113 = getelementptr inbounds nuw i8, ptr %.1.i, i64 56
  store ptr %112, ptr %113, align 8
  %114 = getelementptr inbounds nuw i8, ptr %.1.i, i64 64
  store ptr null, ptr %114, align 8
  store ptr %.1.i, ptr %108, align 8
  br label %115

115:                                              ; preds = %88, %99, %colorchain.exit, %97, %allocarc.exit
  ret void
}